; Function Attrs: mustprogress uwtable
define hidden void @_ZN6Assimp4Ogre20OgreBinarySerializer14ReadBoneParentEPNS0_8SkeletonE(ptr nocapture noundef nonnull readonly align 8 dereferenceable(20) %this, ptr noundef %skeleton) local_unnamed_addr #2 align 2 personality ptr @__gxx_personality_v0 {
entry:
  %childId = alloca i16, align 2
  %parentId = alloca i16, align 2
  %m_reader.i = getelementptr inbounds i8, ptr %this, i64 8
  %0 = load ptr, ptr %m_reader.i, align 8
  %mCurrent.i.i.i = getelementptr inbounds i8, ptr %0, i64 24
  %1 = load ptr, ptr %mCurrent.i.i.i, align 8
  %add.ptr.i.i.i = getelementptr inbounds i8, ptr %1, i64 2
  %mLimit.i.i.i = getelementptr inbounds i8, ptr %0, i64 40
  %2 = load ptr, ptr %mLimit.i.i.i, align 8
  %cmp.i.i.i = icmp ugt ptr %add.ptr.i.i.i, %2
  br i1 %cmp.i.i.i, label %if.then.i.i.i, label %_ZN6Assimp4Ogre20OgreBinarySerializer4ReadItEET_v.exit

if.then.i.i.i:                                    ; preds = %entry
  %exception.i.i.i = tail call ptr @__cxa_allocate_exception(i64 16) #19
  invoke void @_ZN17DeadlyImportErrorC2EPKc(ptr noundef nonnull align 8 dereferenceable(16) %exception.i.i.i, ptr noundef nonnull @.str.66)
          to label %invoke.cont.i.i.i unwind label %lpad.i.i.i

invoke.cont.i.i.i:                                ; preds = %if.then.i.i.i
  tail call void @__cxa_throw(ptr nonnull %exception.i.i.i, ptr nonnull @_ZTI17DeadlyImportError, ptr nonnull @_ZN17DeadlyImportErrorD2Ev) #20
  unreachable

common.resume:                                    ; preds = %lpad, %lpad.i.i.i11, %lpad.i.i.i
  %common.resume.op = phi { ptr, i32 } [ %3, %lpad.i.i.i ], [ %8, %lpad.i.i.i11 ], [ %10, %lpad ]
  resume { ptr, i32 } %common.resume.op

lpad.i.i.i:                                       ; preds = %if.then.i.i.i
  %3 = landingpad { ptr, i32 }
          cleanup
  tail call void @__cxa_free_exception(ptr %exception.i.i.i) #19
  br label %common.resume

_ZN6Assimp4Ogre20OgreBinarySerializer4ReadItEET_v.exit: ; preds = %entry
  %4 = load i16, ptr %1, align 1
  store ptr %add.ptr.i.i.i, ptr %mCurrent.i.i.i, align 8
  store i16 %4, ptr %childId, align 2
  %5 = load ptr, ptr %m_reader.i, align 8
  %mCurrent.i.i.i5 = getelementptr inbounds i8, ptr %5, i64 24
  %6 = load ptr, ptr %mCurrent.i.i.i5, align 8
  %add.ptr.i.i.i6 = getelementptr inbounds i8, ptr %6, i64 2
  %mLimit.i.i.i7 = getelementptr inbounds i8, ptr %5, i64 40
  %7 = load ptr, ptr %mLimit.i.i.i7, align 8
  %cmp.i.i.i8 = icmp ugt ptr %add.ptr.i.i.i6, %7
  br i1 %cmp.i.i.i8, label %if.then.i.i.i9, label %_ZN6Assimp4Ogre20OgreBinarySerializer4ReadItEET_v.exit13

if.then.i.i.i9:                                   ; preds = %_ZN6Assimp4Ogre20OgreBinarySerializer4ReadItEET_v.exit
  %exception.i.i.i10 = tail call ptr @__cxa_allocate_exception(i64 16) #19
  invoke void @_ZN17DeadlyImportErrorC2EPKc(ptr noundef nonnull align 8 dereferenceable(16) %exception.i.i.i10, ptr noundef nonnull @.str.66)
          to label %invoke.cont.i.i.i12 unwind label %lpad.i.i.i11

invoke.cont.i.i.i12:                              ; preds = %if.then.i.i.i9
  tail call void @__cxa_throw(ptr nonnull %exception.i.i.i10, ptr nonnull @_ZTI17DeadlyImportError, ptr nonnull @_ZN17DeadlyImportErrorD2Ev) #20
  unreachable

lpad.i.i.i11:                                     ; preds = %if.then.i.i.i9
  %8 = landingpad { ptr, i32 }
          cleanup
  tail call void @__cxa_free_exception(ptr %exception.i.i.i10) #19
  br label %common.resume

_ZN6Assimp4Ogre20OgreBinarySerializer4ReadItEET_v.exit13: ; preds = %_ZN6Assimp4Ogre20OgreBinarySerializer4ReadItEET_v.exit
  %9 = load i16, ptr %6, align 1
  store ptr %add.ptr.i.i.i6, ptr %mCurrent.i.i.i5, align 8
  store i16 %9, ptr %parentId, align 2
  %call3 = tail call noundef ptr @_ZNK6Assimp4Ogre8Skeleton8BoneByIdEt(ptr noundef nonnull align 8 dereferenceable(52) %skeleton, i16 noundef zeroext %4)
  %call4 = tail call noundef ptr @_ZNK6Assimp4Ogre8Skeleton8BoneByIdEt(ptr noundef nonnull align 8 dereferenceable(52) %skeleton, i16 noundef zeroext %9)
  %tobool = icmp ne ptr %call3, null
  %tobool5 = icmp ne ptr %call4, null
  %or.cond = and i1 %tobool, %tobool5
  br i1 %or.cond, label %if.then, label %if.else

if.then:                                          ; preds = %_ZN6Assimp4Ogre20OgreBinarySerializer4ReadItEET_v.exit13
  tail call void @_ZN6Assimp4Ogre4Bone8AddChildEPS1_(ptr noundef nonnull align 8 dereferenceable(248) %call4, ptr noundef nonnull %call3)
  ret void

if.else:                                          ; preds = %_ZN6Assimp4Ogre20OgreBinarySerializer4ReadItEET_v.exit13
  %exception = tail call ptr @__cxa_allocate_exception(i64 16) #19
  invoke void @_ZN17DeadlyImportErrorC2IJRA46_KcRtRA16_S1_S4_EEEDpOT_(ptr noundef nonnull align 8 dereferenceable(16) %exception, ptr noundef nonnull align 1 dereferenceable(46) @.str.59, ptr noundef nonnull align 2 dereferenceable(2) %childId, ptr noundef nonnull align 1 dereferenceable(16) @.str.60, ptr noundef nonnull align 2 dereferenceable(2) %parentId)
          to label %invoke.cont unwind label %lpad

invoke.cont:                                      ; preds = %if.else
  call void @__cxa_throw(ptr nonnull %exception, ptr nonnull @_ZTI17DeadlyImportError, ptr nonnull @_ZN17DeadlyImportErrorD2Ev) #20
  unreachable

lpad:                                             ; preds = %if.else
  %10 = landingpad { ptr, i32 }
          cleanup
  call void @__cxa_free_exception(ptr %exception) #19
  br label %common.resume
}